target datalayout = "e-m:e-p270:32:32-p271:32:32-p272:64:64-i64:64-i128:128-f80:128-n8:16:32:64-S128"
target triple = "x86_64-pc-linux-gnu"

%struct.mbedtls_ssl_context = type { ptr, i32, i32, i32, i32, i32, ptr, ptr, ptr, ptr, ptr, ptr, ptr, ptr, ptr, ptr, ptr, ptr, ptr, ptr, ptr, ptr, ptr, ptr, ptr, ptr, ptr, ptr, ptr, ptr, ptr, ptr, ptr, i32, i64, i64, i16, i64, i64, i64, i64, i32, i32, i8, i8, i32, i8, ptr, ptr, ptr, ptr, ptr, ptr, ptr, i32, i64, i64, [8 x i8], i16, ptr, ptr, ptr, i64, i32, i64, [12 x i8], [12 x i8], [32 x i8], i8, i8, ptr, ptr, %union.mbedtls_ssl_user_data_t }
%union.mbedtls_ssl_user_data_t = type { i64 }
%struct.mbedtls_ssl_handshake_params = type { i8, i8, i8, i8, i8, i32, i8, i8, i8, i8, ptr, ptr, ptr, ptr, ptr, i8, i8, i8, i8, i16, i16, [20 x i16], ptr, ptr, %struct.mbedtls_dhm_context, %struct.mbedtls_ecdh_context, i16, i64, i32, i8, [1024 x i8], i64, ptr, ptr, i64, i16, ptr, ptr, ptr, ptr, %struct.anon, ptr, i16, i8, i32, i32, i32, ptr, ptr, ptr, i32, ptr, [8 x i8], i8, [32 x i8], i8, i16, %struct.mbedtls_md_context_t, %struct.mbedtls_md_context_t, i16, i8, %union.anon.1, [64 x i8], [1076 x i8], i64, i32, i32, i8, ptr, ptr, %union.anon.4, %struct.mbedtls_ssl_tls13_handshake_secrets, ptr, i64, ptr }
%struct.mbedtls_dhm_context = type { %struct.mbedtls_mpi, %struct.mbedtls_mpi, %struct.mbedtls_mpi, %struct.mbedtls_mpi, %struct.mbedtls_mpi, %struct.mbedtls_mpi, %struct.mbedtls_mpi, %struct.mbedtls_mpi, %struct.mbedtls_mpi, %struct.mbedtls_mpi }
%struct.mbedtls_mpi = type { ptr, i16, i16 }
%struct.mbedtls_ecdh_context = type { i8, i32, i32, %union.anon }
%union.anon = type { %struct.mbedtls_ecdh_context_mbed }
%struct.mbedtls_ecdh_context_mbed = type { %struct.mbedtls_ecp_group, %struct.mbedtls_mpi, %struct.mbedtls_ecp_point, %struct.mbedtls_ecp_point, %struct.mbedtls_mpi }
%struct.mbedtls_ecp_group = type { i32, %struct.mbedtls_mpi, %struct.mbedtls_mpi, %struct.mbedtls_mpi, %struct.mbedtls_ecp_point, %struct.mbedtls_mpi, i64, i64, i32, ptr, ptr, ptr, ptr, ptr, i64 }
%struct.mbedtls_ecp_point = type { %struct.mbedtls_mpi, %struct.mbedtls_mpi, %struct.mbedtls_mpi }
%struct.anon = type { i64, i8, [4 x %struct.mbedtls_ssl_hs_buffer], %struct.anon.0 }
%struct.mbedtls_ssl_hs_buffer = type { i8, ptr, i64 }
%struct.anon.0 = type { ptr, i64, i32 }
%struct.mbedtls_md_context_t = type { ptr, ptr, ptr }
%union.anon.1 = type { %struct.anon.2 }
%struct.anon.2 = type { i8, [64 x i8], i64 }
%union.anon.4 = type { [64 x i8] }
%struct.mbedtls_ssl_tls13_handshake_secrets = type { [64 x i8], [64 x i8] }

@.str = private unnamed_addr constant [131 x i8] c"generated/home/dtcxzyw/WorkSpace/Projects/compilers/llvm-opt-benchmark/bench/lief/bench_build/mbed_src/library/ssl_tls13_generic.c\00", align 1
@.str.34 = private unnamed_addr constant [9 x i8] c"received\00", align 1
@.str.35 = private unnamed_addr constant [11 x i8] c"is illegal\00", align 1
@.str.36 = private unnamed_addr constant [15 x i8] c"is unsupported\00", align 1

; Function Attrs: nounwind uwtable
define hidden i32 @mbedtls_ssl_tls13_check_received_extension(ptr noundef %0, i32 noundef %1, i32 noundef %2, i32 noundef %3) #0 {
  %5 = alloca i32, align 4
  %6 = alloca ptr, align 8
  %7 = alloca i32, align 4
  %8 = alloca i32, align 4
  %9 = alloca i32, align 4
  %10 = alloca i32, align 4
  %11 = alloca i32, align 4
  store ptr %0, ptr %6, align 8, !tbaa !3
  store i32 %1, ptr %7, align 4, !tbaa !8
  store i32 %2, ptr %8, align 4, !tbaa !8
  store i32 %3, ptr %9, align 4, !tbaa !8
  call void @llvm.lifetime.start.p0(i64 4, ptr %10) #10
  %12 = load i32, ptr %8, align 4, !tbaa !8
  %13 = call i32 @mbedtls_ssl_get_extension_mask(i32 noundef %12)
  store i32 %13, ptr %10, align 4, !tbaa !8
  %14 = load ptr, ptr %6, align 8, !tbaa !3
  %15 = load i32, ptr %7, align 4, !tbaa !8
  %16 = load i32, ptr %8, align 4, !tbaa !8
  call void @mbedtls_ssl_print_extension(ptr noundef %14, i32 noundef 3, ptr noundef @.str, i32 noundef 1629, i32 noundef %15, i32 noundef %16, ptr noundef @.str.34, ptr noundef null)
  %17 = load i32, ptr %10, align 4, !tbaa !8
  %18 = load i32, ptr %9, align 4, !tbaa !8
  %19 = and i32 %17, %18
  %20 = icmp eq i32 %19, 0
  br i1 %20, label %21, label %26

21:                                               ; preds = %4
  %22 = load ptr, ptr %6, align 8, !tbaa !3
  %23 = load i32, ptr %7, align 4, !tbaa !8
  %24 = load i32, ptr %8, align 4, !tbaa !8
  call void @mbedtls_ssl_print_extension(ptr noundef %22, i32 noundef 3, ptr noundef @.str, i32 noundef 1633, i32 noundef %23, i32 noundef %24, ptr noundef @.str.35, ptr noundef null)
  %25 = load ptr, ptr %6, align 8, !tbaa !3
  call void @mbedtls_ssl_pend_fatal_alert(ptr noundef %25, i8 noundef zeroext 47, i32 noundef -26112)
  store i32 -26112, ptr %5, align 4
  store i32 1, ptr %11, align 4
  br label %52

26:                                               ; preds = %4
  %27 = load i32, ptr %10, align 4, !tbaa !8
  %28 = load ptr, ptr %6, align 8, !tbaa !3
  %29 = getelementptr inbounds nuw %struct.mbedtls_ssl_context, ptr %28, i32 0, i32 16
  %30 = load ptr, ptr %29, align 8, !tbaa !33
  %31 = getelementptr inbounds nuw %struct.mbedtls_ssl_handshake_params, ptr %30, i32 0, i32 66
  %32 = load i32, ptr %31, align 4, !tbaa !65
  %33 = or i32 %32, %27
  store i32 %33, ptr %31, align 4, !tbaa !65
  %34 = load i32, ptr %7, align 4, !tbaa !8
  switch i32 %34, label %46 [
    i32 2, label %35
    i32 -2, label %35
    i32 8, label %35
    i32 11, label %35
  ]

35:                                               ; preds = %26, %26, %26, %26
  %36 = load ptr, ptr %6, align 8, !tbaa !3
  %37 = getelementptr inbounds nuw %struct.mbedtls_ssl_context, ptr %36, i32 0, i32 16
  %38 = load ptr, ptr %37, align 8, !tbaa !33
  %39 = getelementptr inbounds nuw %struct.mbedtls_ssl_handshake_params, ptr %38, i32 0, i32 65
  %40 = load i32, ptr %39, align 8, !tbaa !88
  %41 = load i32, ptr %10, align 4, !tbaa !8
  %42 = and i32 %40, %41
  %43 = icmp ne i32 %42, 0
  br i1 %43, label %44, label %45

44:                                               ; preds = %35
  store i32 0, ptr %5, align 4
  store i32 1, ptr %11, align 4
  br label %52

45:                                               ; preds = %35
  br label %47

46:                                               ; preds = %26
  store i32 0, ptr %5, align 4
  store i32 1, ptr %11, align 4
  br label %52

47:                                               ; preds = %45
  %48 = load ptr, ptr %6, align 8, !tbaa !3
  %49 = load i32, ptr %7, align 4, !tbaa !8
  %50 = load i32, ptr %8, align 4, !tbaa !8
  call void @mbedtls_ssl_print_extension(ptr noundef %48, i32 noundef 3, ptr noundef @.str, i32 noundef 1660, i32 noundef %49, i32 noundef %50, ptr noundef @.str.36, ptr noundef null)
  %51 = load ptr, ptr %6, align 8, !tbaa !3
  call void @mbedtls_ssl_pend_fatal_alert(ptr noundef %51, i8 noundef zeroext 110, i32 noundef -29952)
  store i32 -29952, ptr %5, align 4
  store i32 1, ptr %11, align 4
  br label %52

52:                                               ; preds = %47, %46, %44, %21
  call void @llvm.lifetime.end.p0(i64 4, ptr %10) #10
  %53 = load i32, ptr %5, align 4
  ret i32 %53
}