; Function Attrs: nounwind uwtable
define hidden range(i32 -29952, 1) i32 @mbedtls_ssl_tls13_check_received_extension(ptr noundef %0, i32 noundef %1, i32 noundef %2, i32 noundef %3) local_unnamed_addr #0 {
  %5 = tail call i32 @mbedtls_ssl_get_extension_mask(i32 noundef %2) #8
  tail call void @mbedtls_ssl_print_extension(ptr noundef %0, i32 noundef 3, ptr noundef nonnull @.str, i32 noundef 1629, i32 noundef %1, i32 noundef %2, ptr noundef nonnull @.str.34, ptr noundef null) #8
  %6 = and i32 %5, %3
  %7 = icmp eq i32 %6, 0
  br i1 %7, label %8, label %9

8:                                                ; preds = %4
  tail call void @mbedtls_ssl_print_extension(ptr noundef %0, i32 noundef 3, ptr noundef nonnull @.str, i32 noundef 1633, i32 noundef %1, i32 noundef %2, ptr noundef nonnull @.str.35, ptr noundef null) #8
  tail call void @mbedtls_ssl_pend_fatal_alert(ptr noundef %0, i8 noundef zeroext 47, i32 noundef -26112) #8
  br label %20

9:                                                ; preds = %4
  %10 = getelementptr inbounds nuw i8, ptr %0, i64 112
  %11 = load ptr, ptr %10, align 8, !tbaa !23
  %12 = getelementptr inbounds nuw i8, ptr %11, i64 3276
  %13 = load i32, ptr %12, align 4, !tbaa !62
  %14 = or i32 %13, %5
  store i32 %14, ptr %12, align 4, !tbaa !62
  switch i32 %1, label %20 [
    i32 2, label %15
    i32 -2, label %15
    i32 8, label %15
    i32 11, label %15
  ]

15:                                               ; preds = %9, %9, %9, %9
  %16 = getelementptr inbounds nuw i8, ptr %11, i64 3272
  %17 = load i32, ptr %16, align 8, !tbaa !89
  %18 = and i32 %17, %5
  %.not = icmp eq i32 %18, 0
  br i1 %.not, label %19, label %20

19:                                               ; preds = %15
  tail call void @mbedtls_ssl_print_extension(ptr noundef nonnull %0, i32 noundef 3, ptr noundef nonnull @.str, i32 noundef 1660, i32 noundef %1, i32 noundef %2, ptr noundef nonnull @.str.36, ptr noundef null) #8
  tail call void @mbedtls_ssl_pend_fatal_alert(ptr noundef nonnull %0, i8 noundef zeroext 110, i32 noundef -29952) #8
  br label %20

20:                                               ; preds = %9, %15, %19, %8
  %.0 = phi i32 [ -26112, %8 ], [ -29952, %19 ], [ 0, %15 ], [ 0, %9 ]
  ret i32 %.0
}